target datalayout = "e-m:e-p270:32:32-p271:32:32-p272:64:64-i64:64-i128:128-f80:128-n8:16:32:64-S128"
target triple = "x86_64-pc-linux-gnu"

%struct.P9Req = type { ptr, ptr, i16, i64, i32, i64, i64, i64, i32 }
%struct.QVirtio9P = type { ptr, ptr }

@alloc = internal global ptr null, align 8

; Function Attrs: nounwind sspstrong uwtable
define dso_local void @v9fs_req_send(ptr noundef %0) #0 {
  %2 = alloca ptr, align 8
  %3 = alloca ptr, align 8
  store ptr %0, ptr %2, align 8
  call void @llvm.lifetime.start.p0(i64 8, ptr %3) #13
  %4 = load ptr, ptr %2, align 8
  %5 = getelementptr inbounds nuw %struct.P9Req, ptr %4, i32 0, i32 1
  %6 = load ptr, ptr %5, align 8
  store ptr %6, ptr %3, align 8
  %7 = load ptr, ptr @alloc, align 8
  %8 = call i64 @guest_alloc(ptr noundef %7, i64 noundef 4096)
  %9 = load ptr, ptr %2, align 8
  %10 = getelementptr inbounds nuw %struct.P9Req, ptr %9, i32 0, i32 5
  store i64 %8, ptr %10, align 8
  %11 = load ptr, ptr %2, align 8
  %12 = getelementptr inbounds nuw %struct.P9Req, ptr %11, i32 0, i32 0
  %13 = load ptr, ptr %12, align 8
  %14 = load ptr, ptr %3, align 8
  %15 = getelementptr inbounds nuw %struct.QVirtio9P, ptr %14, i32 0, i32 1
  %16 = load ptr, ptr %15, align 8
  %17 = load ptr, ptr %2, align 8
  %18 = getelementptr inbounds nuw %struct.P9Req, ptr %17, i32 0, i32 3
  %19 = load i64, ptr %18, align 8
  %20 = load ptr, ptr %2, align 8
  %21 = getelementptr inbounds nuw %struct.P9Req, ptr %20, i32 0, i32 4
  %22 = load i32, ptr %21, align 8
  %23 = call i32 @qvirtqueue_add(ptr noundef %13, ptr noundef %16, i64 noundef %19, i32 noundef %22, i1 noundef zeroext false, i1 noundef zeroext true)
  %24 = load ptr, ptr %2, align 8
  %25 = getelementptr inbounds nuw %struct.P9Req, ptr %24, i32 0, i32 8
  store i32 %23, ptr %25, align 8
  %26 = load ptr, ptr %2, align 8
  %27 = getelementptr inbounds nuw %struct.P9Req, ptr %26, i32 0, i32 0
  %28 = load ptr, ptr %27, align 8
  %29 = load ptr, ptr %3, align 8
  %30 = getelementptr inbounds nuw %struct.QVirtio9P, ptr %29, i32 0, i32 1
  %31 = load ptr, ptr %30, align 8
  %32 = load ptr, ptr %2, align 8
  %33 = getelementptr inbounds nuw %struct.P9Req, ptr %32, i32 0, i32 5
  %34 = load i64, ptr %33, align 8
  %35 = call i32 @qvirtqueue_add(ptr noundef %28, ptr noundef %31, i64 noundef %34, i32 noundef 4096, i1 noundef zeroext true, i1 noundef zeroext false)
  %36 = load ptr, ptr %2, align 8
  %37 = getelementptr inbounds nuw %struct.P9Req, ptr %36, i32 0, i32 0
  %38 = load ptr, ptr %37, align 8
  %39 = load ptr, ptr %3, align 8
  %40 = getelementptr inbounds nuw %struct.QVirtio9P, ptr %39, i32 0, i32 0
  %41 = load ptr, ptr %40, align 8
  %42 = load ptr, ptr %3, align 8
  %43 = getelementptr inbounds nuw %struct.QVirtio9P, ptr %42, i32 0, i32 1
  %44 = load ptr, ptr %43, align 8
  %45 = load ptr, ptr %2, align 8
  %46 = getelementptr inbounds nuw %struct.P9Req, ptr %45, i32 0, i32 8
  %47 = load i32, ptr %46, align 8
  call void @qvirtqueue_kick(ptr noundef %38, ptr noundef %41, ptr noundef %44, i32 noundef %47)
  %48 = load ptr, ptr %2, align 8
  %49 = getelementptr inbounds nuw %struct.P9Req, ptr %48, i32 0, i32 6
  store i64 0, ptr %49, align 8
  call void @llvm.lifetime.end.p0(i64 8, ptr %3) #13
  ret void
}