; Function Attrs: nounwind sspstrong uwtable
define dso_local void @v9fs_req_send(ptr noundef captures(none) initializes((40, 56), (64, 68)) %0) local_unnamed_addr #1 {
  %2 = getelementptr inbounds nuw i8, ptr %0, i64 8
  %3 = load ptr, ptr %2, align 8
  %4 = load ptr, ptr @alloc, align 8
  %5 = tail call i64 @guest_alloc(ptr noundef %4, i64 noundef 4096) #14
  %6 = getelementptr inbounds nuw i8, ptr %0, i64 40
  store i64 %5, ptr %6, align 8
  %7 = load ptr, ptr %0, align 8
  %8 = getelementptr inbounds nuw i8, ptr %3, i64 8
  %9 = load ptr, ptr %8, align 8
  %10 = getelementptr inbounds nuw i8, ptr %0, i64 24
  %11 = load i64, ptr %10, align 8
  %12 = getelementptr inbounds nuw i8, ptr %0, i64 32
  %13 = load i32, ptr %12, align 8
  %14 = tail call i32 @qvirtqueue_add(ptr noundef %7, ptr noundef %9, i64 noundef %11, i32 noundef %13, i1 noundef zeroext false, i1 noundef zeroext true) #14
  %15 = getelementptr inbounds nuw i8, ptr %0, i64 64
  store i32 %14, ptr %15, align 8
  %16 = load ptr, ptr %0, align 8
  %17 = load ptr, ptr %8, align 8
  %18 = load i64, ptr %6, align 8
  %19 = tail call i32 @qvirtqueue_add(ptr noundef %16, ptr noundef %17, i64 noundef %18, i32 noundef 4096, i1 noundef zeroext true, i1 noundef zeroext false) #14
  %20 = load ptr, ptr %0, align 8
  %21 = load ptr, ptr %3, align 8
  %22 = load ptr, ptr %8, align 8
  %23 = load i32, ptr %15, align 8
  tail call void @qvirtqueue_kick(ptr noundef %20, ptr noundef %21, ptr noundef %22, i32 noundef %23) #14
  %24 = getelementptr inbounds nuw i8, ptr %0, i64 48
  store i64 0, ptr %24, align 8
  ret void
}